target datalayout = "e-m:e-p270:32:32-p271:32:32-p272:64:64-i64:64-i128:128-f80:128-n8:16:32:64-S128"
target triple = "x86_64-pc-linux-gnu"

%struct._object = type { %union.anon, ptr }
%union.anon = type { i64 }
%struct._PyWeakReference = type { %struct._object, ptr, ptr, i64, ptr, ptr, ptr }
%struct.anon = type { i32, i32 }

@_Py_NoneStruct = external global %struct._object, align 8
@PyExc_ReferenceError = external global ptr, align 8
@.str.21 = private unnamed_addr constant [42 x i8] c"weakly-referenced object no longer exists\00", align 1

; Function Attrs: inlinehint nounwind uwtable
define internal i64 @_Py_REFCNT(ptr noundef %0) #1 {
  %2 = alloca ptr, align 8
  store ptr %0, ptr %2, align 8, !tbaa !4
  %3 = load ptr, ptr %2, align 8, !tbaa !4
  %4 = getelementptr inbounds nuw %struct._object, ptr %3, i32 0, i32 0
  %5 = getelementptr inbounds nuw %struct.anon, ptr %4, i32 0, i32 0
  %6 = load i32, ptr %5, align 8, !tbaa !44
  %7 = zext i32 %6 to i64
  ret i64 %7
}

; Function Attrs: alwaysinline nounwind uwtable
define internal i32 @_Py_IsImmortal(ptr noundef %0) #4 {
  %2 = alloca ptr, align 8
  store ptr %0, ptr %2, align 8, !tbaa !4
  %3 = load ptr, ptr %2, align 8, !tbaa !4
  %4 = getelementptr inbounds nuw %struct._object, ptr %3, i32 0, i32 0
  %5 = getelementptr inbounds nuw %struct.anon, ptr %4, i32 0, i32 0
  %6 = load i32, ptr %5, align 8, !tbaa !44
  %7 = icmp slt i32 %6, 0
  %8 = zext i1 %7 to i32
  ret i32 %8
}

; Function Attrs: inlinehint nounwind uwtable
define internal i32 @_Py_TryIncref(ptr noundef %0) #1 {
  %2 = alloca i32, align 4
  %3 = alloca ptr, align 8
  store ptr %0, ptr %3, align 8, !tbaa !4
  %4 = load ptr, ptr %3, align 8, !tbaa !4
  %5 = call i64 @_Py_REFCNT(ptr noundef %4)
  %6 = icmp sgt i64 %5, 0
  br i1 %6, label %7, label %9

7:                                                ; preds = %1
  %8 = load ptr, ptr %3, align 8, !tbaa !4
  call void @Py_INCREF(ptr noundef %8)
  store i32 1, ptr %2, align 4
  br label %10

9:                                                ; preds = %1
  store i32 0, ptr %2, align 4
  br label %10

10:                                               ; preds = %9, %7
  %11 = load i32, ptr %2, align 4
  ret i32 %11
}

; Function Attrs: inlinehint nounwind uwtable
define internal ptr @_Py_TYPE(ptr noundef %0) #1 {
  %2 = alloca ptr, align 8
  store ptr %0, ptr %2, align 8, !tbaa !4
  %3 = load ptr, ptr %2, align 8, !tbaa !4
  %4 = getelementptr inbounds nuw %struct._object, ptr %3, i32 0, i32 1
  %5 = load ptr, ptr %4, align 8, !tbaa !29
  ret ptr %5
}

; Function Attrs: inlinehint nounwind uwtable
define internal void @Py_XDECREF(ptr noundef %0) #1 {
  %2 = alloca ptr, align 8
  store ptr %0, ptr %2, align 8, !tbaa !4
  %3 = load ptr, ptr %2, align 8, !tbaa !4
  %4 = icmp ne ptr %3, null
  br i1 %4, label %5, label %7

5:                                                ; preds = %1
  %6 = load ptr, ptr %2, align 8, !tbaa !4
  call void @Py_DECREF(ptr noundef %6)
  br label %7

7:                                                ; preds = %5, %1
  ret void
}

; Function Attrs: alwaysinline nounwind uwtable
define internal void @Py_DECREF(ptr noundef %0) #4 {
  %2 = alloca ptr, align 8
  store ptr %0, ptr %2, align 8, !tbaa !4
  %3 = load ptr, ptr %2, align 8, !tbaa !4
  %4 = call i32 @_Py_IsImmortal(ptr noundef %3)
  %5 = icmp ne i32 %4, 0
  br i1 %5, label %6, label %7

6:                                                ; preds = %1
  br label %16

7:                                                ; preds = %1
  %8 = load ptr, ptr %2, align 8, !tbaa !4
  %9 = getelementptr inbounds nuw %struct._object, ptr %8, i32 0, i32 0
  %10 = getelementptr inbounds nuw %struct.anon, ptr %9, i32 0, i32 0
  %11 = load i32, ptr %10, align 8, !tbaa !44
  %12 = add i32 %11, -1
  store i32 %12, ptr %10, align 8, !tbaa !44
  %13 = icmp eq i32 %12, 0
  br i1 %13, label %14, label %16

14:                                               ; preds = %7
  %15 = load ptr, ptr %2, align 8, !tbaa !4
  call void @_Py_Dealloc(ptr noundef %15)
  br label %16

16:                                               ; preds = %6, %14, %7
  ret void
}

; Function Attrs: alwaysinline nounwind uwtable
define internal void @Py_INCREF(ptr noundef %0) #4 {
  %2 = alloca ptr, align 8
  %3 = alloca i32, align 4
  %4 = alloca i32, align 4
  store ptr %0, ptr %2, align 8, !tbaa !4
  call void @llvm.lifetime.start.p0(i64 4, ptr %3) #6
  %5 = load ptr, ptr %2, align 8, !tbaa !4
  %6 = getelementptr inbounds nuw %struct._object, ptr %5, i32 0, i32 0
  %7 = getelementptr inbounds nuw %struct.anon, ptr %6, i32 0, i32 0
  %8 = load i32, ptr %7, align 8, !tbaa !44
  store i32 %8, ptr %3, align 4, !tbaa !42
  %9 = load i32, ptr %3, align 4, !tbaa !42
  %10 = icmp slt i32 %9, 0
  br i1 %10, label %11, label %12

11:                                               ; preds = %1
  store i32 1, ptr %4, align 4
  br label %18

12:                                               ; preds = %1
  %13 = load i32, ptr %3, align 4, !tbaa !42
  %14 = add i32 %13, 1
  %15 = load ptr, ptr %2, align 8, !tbaa !4
  %16 = getelementptr inbounds nuw %struct._object, ptr %15, i32 0, i32 0
  %17 = getelementptr inbounds nuw %struct.anon, ptr %16, i32 0, i32 0
  store i32 %14, ptr %17, align 8, !tbaa !44
  store i32 0, ptr %4, align 4
  br label %18

18:                                               ; preds = %12, %11
  call void @llvm.lifetime.end.p0(i64 4, ptr %3) #6
  %19 = load i32, ptr %4, align 4
  switch i32 %19, label %21 [
    i32 0, label %20
    i32 1, label %20
  ]

20:                                               ; preds = %18, %18
  ret void

21:                                               ; preds = %18
  unreachable
}

; Function Attrs: nounwind uwtable
define internal zeroext i1 @proxy_check_ref(ptr noundef %0) #0 {
  %2 = alloca i1, align 1
  %3 = alloca ptr, align 8
  store ptr %0, ptr %3, align 8, !tbaa !4
  %4 = load ptr, ptr %3, align 8, !tbaa !4
  %5 = icmp eq ptr %4, null
  br i1 %5, label %6, label %8

6:                                                ; preds = %1
  %7 = load ptr, ptr @PyExc_ReferenceError, align 8, !tbaa !4
  call void @PyErr_SetString(ptr noundef %7, ptr noundef @.str.21)
  store i1 false, ptr %2, align 1
  br label %9

8:                                                ; preds = %1
  store i1 true, ptr %2, align 1
  br label %9

9:                                                ; preds = %8, %6
  %10 = load i1, ptr %2, align 1
  ret i1 %10
}

; Function Attrs: inlinehint nounwind uwtable
define internal ptr @_PyWeakref_GET_REF(ptr noundef %0) #1 {
  %2 = alloca ptr, align 8
  %3 = alloca ptr, align 8
  %4 = alloca ptr, align 8
  %5 = alloca ptr, align 8
  %6 = alloca i32, align 4
  store ptr %0, ptr %3, align 8, !tbaa !4
  call void @llvm.lifetime.start.p0(i64 8, ptr %4) #6
  %7 = load ptr, ptr %3, align 8, !tbaa !4
  store ptr %7, ptr %4, align 8, !tbaa !11
  call void @llvm.lifetime.start.p0(i64 8, ptr %5) #6
  %8 = load ptr, ptr %4, align 8, !tbaa !11
  %9 = getelementptr inbounds nuw %struct._PyWeakReference, ptr %8, i32 0, i32 1
  %10 = load ptr, ptr %9, align 8, !tbaa !36
  store ptr %10, ptr %5, align 8, !tbaa !4
  %11 = load ptr, ptr %5, align 8, !tbaa !4
  %12 = icmp eq ptr %11, @_Py_NoneStruct
  br i1 %12, label %13, label %14

13:                                               ; preds = %1
  store ptr null, ptr %2, align 8
  store i32 1, ptr %6, align 4
  br label %21

14:                                               ; preds = %1
  %15 = load ptr, ptr %5, align 8, !tbaa !4
  %16 = call i32 @_Py_TryIncref(ptr noundef %15)
  %17 = icmp ne i32 %16, 0
  br i1 %17, label %18, label %20

18:                                               ; preds = %14
  %19 = load ptr, ptr %5, align 8, !tbaa !4
  store ptr %19, ptr %2, align 8
  store i32 1, ptr %6, align 4
  br label %21

20:                                               ; preds = %14
  store ptr null, ptr %2, align 8
  store i32 1, ptr %6, align 4
  br label %21

21:                                               ; preds = %20, %18, %13
  call void @llvm.lifetime.end.p0(i64 8, ptr %5) #6
  call void @llvm.lifetime.end.p0(i64 8, ptr %4) #6
  %22 = load ptr, ptr %2, align 8
  ret ptr %22
}

; Function Attrs: inlinehint nounwind uwtable
define internal i32 @Py_IS_TYPE(ptr noundef %0, ptr noundef %1) #1 {
  %3 = alloca ptr, align 8
  %4 = alloca ptr, align 8
  store ptr %0, ptr %3, align 8, !tbaa !4
  store ptr %1, ptr %4, align 8, !tbaa !19
  %5 = load ptr, ptr %3, align 8, !tbaa !4
  %6 = call ptr @_Py_TYPE(ptr noundef %5)
  %7 = load ptr, ptr %4, align 8, !tbaa !19
  %8 = icmp eq ptr %6, %7
  %9 = zext i1 %8 to i32
  ret i32 %9
}

; Function Attrs: nounwind uwtable
define internal ptr @proxy_call(ptr noundef %0, ptr noundef %1, ptr noundef %2) #0 {
  %4 = alloca ptr, align 8
  %5 = alloca ptr, align 8
  %6 = alloca ptr, align 8
  %7 = alloca ptr, align 8
  %8 = alloca ptr, align 8
  store ptr %0, ptr %5, align 8, !tbaa !4
  store ptr %1, ptr %6, align 8, !tbaa !4
  store ptr %2, ptr %7, align 8, !tbaa !4
  %9 = load ptr, ptr %5, align 8, !tbaa !4
  %10 = call i32 @Py_IS_TYPE(ptr noundef %9, ptr noundef @_PyWeakref_ProxyType)
  %11 = icmp ne i32 %10, 0
  br i1 %11, label %16, label %12

12:                                               ; preds = %3
  %13 = load ptr, ptr %5, align 8, !tbaa !4
  %14 = call i32 @Py_IS_TYPE(ptr noundef %13, ptr noundef @_PyWeakref_CallableProxyType)
  %15 = icmp ne i32 %14, 0
  br i1 %15, label %16, label %23

16:                                               ; preds = %12, %3
  %17 = load ptr, ptr %5, align 8, !tbaa !4
  %18 = call ptr @_PyWeakref_GET_REF(ptr noundef %17)
  store ptr %18, ptr %5, align 8, !tbaa !4
  %19 = load ptr, ptr %5, align 8, !tbaa !4
  %20 = call zeroext i1 @proxy_check_ref(ptr noundef %19)
  br i1 %20, label %22, label %21

21:                                               ; preds = %16
  store ptr null, ptr %4, align 8
  br label %72

22:                                               ; preds = %16
  br label %25

23:                                               ; preds = %12
  %24 = load ptr, ptr %5, align 8, !tbaa !4
  call void @Py_INCREF(ptr noundef %24)
  br label %25

25:                                               ; preds = %23, %22
  %26 = load ptr, ptr %6, align 8, !tbaa !4
  %27 = call i32 @Py_IS_TYPE(ptr noundef %26, ptr noundef @_PyWeakref_ProxyType)
  %28 = icmp ne i32 %27, 0
  br i1 %28, label %33, label %29

29:                                               ; preds = %25
  %30 = load ptr, ptr %6, align 8, !tbaa !4
  %31 = call i32 @Py_IS_TYPE(ptr noundef %30, ptr noundef @_PyWeakref_CallableProxyType)
  %32 = icmp ne i32 %31, 0
  br i1 %32, label %33, label %40

33:                                               ; preds = %29, %25
  %34 = load ptr, ptr %6, align 8, !tbaa !4
  %35 = call ptr @_PyWeakref_GET_REF(ptr noundef %34)
  store ptr %35, ptr %6, align 8, !tbaa !4
  %36 = load ptr, ptr %6, align 8, !tbaa !4
  %37 = call zeroext i1 @proxy_check_ref(ptr noundef %36)
  br i1 %37, label %39, label %38

38:                                               ; preds = %33
  store ptr null, ptr %4, align 8
  br label %72

39:                                               ; preds = %33
  br label %42

40:                                               ; preds = %29
  %41 = load ptr, ptr %6, align 8, !tbaa !4
  call void @Py_INCREF(ptr noundef %41)
  br label %42

42:                                               ; preds = %40, %39
  %43 = load ptr, ptr %7, align 8, !tbaa !4
  %44 = icmp ne ptr %43, null
  br i1 %44, label %45, label %63

45:                                               ; preds = %42
  %46 = load ptr, ptr %7, align 8, !tbaa !4
  %47 = call i32 @Py_IS_TYPE(ptr noundef %46, ptr noundef @_PyWeakref_ProxyType)
  %48 = icmp ne i32 %47, 0
  br i1 %48, label %53, label %49

49:                                               ; preds = %45
  %50 = load ptr, ptr %7, align 8, !tbaa !4
  %51 = call i32 @Py_IS_TYPE(ptr noundef %50, ptr noundef @_PyWeakref_CallableProxyType)
  %52 = icmp ne i32 %51, 0
  br i1 %52, label %53, label %60

53:                                               ; preds = %49, %45
  %54 = load ptr, ptr %7, align 8, !tbaa !4
  %55 = call ptr @_PyWeakref_GET_REF(ptr noundef %54)
  store ptr %55, ptr %7, align 8, !tbaa !4
  %56 = load ptr, ptr %7, align 8, !tbaa !4
  %57 = call zeroext i1 @proxy_check_ref(ptr noundef %56)
  br i1 %57, label %59, label %58

58:                                               ; preds = %53
  store ptr null, ptr %4, align 8
  br label %72

59:                                               ; preds = %53
  br label %62

60:                                               ; preds = %49
  %61 = load ptr, ptr %7, align 8, !tbaa !4
  call void @Py_INCREF(ptr noundef %61)
  br label %62

62:                                               ; preds = %60, %59
  br label %63

63:                                               ; preds = %62, %42
  call void @llvm.lifetime.start.p0(i64 8, ptr %8) #6
  %64 = load ptr, ptr %5, align 8, !tbaa !4
  %65 = load ptr, ptr %6, align 8, !tbaa !4
  %66 = load ptr, ptr %7, align 8, !tbaa !4
  %67 = call ptr @PyObject_Call(ptr noundef %64, ptr noundef %65, ptr noundef %66)
  store ptr %67, ptr %8, align 8, !tbaa !4
  %68 = load ptr, ptr %5, align 8, !tbaa !4
  call void @Py_DECREF(ptr noundef %68)
  %69 = load ptr, ptr %6, align 8, !tbaa !4
  call void @Py_DECREF(ptr noundef %69)
  %70 = load ptr, ptr %7, align 8, !tbaa !4
  call void @Py_XDECREF(ptr noundef %70)
  %71 = load ptr, ptr %8, align 8, !tbaa !4
  store ptr %71, ptr %4, align 8
  call void @llvm.lifetime.end.p0(i64 8, ptr %8) #6
  br label %72

72:                                               ; preds = %63, %58, %38, %21
  %73 = load ptr, ptr %4, align 8
  ret ptr %73
}